target datalayout = "e-m:e-p270:32:32-p271:32:32-p272:64:64-i64:64-i128:128-f80:128-n8:16:32:64-S128"
target triple = "x86_64-pc-linux-gnu"

@.str.5 = private unnamed_addr constant [26 x i8] c"../openssl/test/dsatest.c\00", align 1
@.str.7 = private unnamed_addr constant [16 x i8] c"dsa = DSA_new()\00", align 1
@out_q = internal global [20 x i8] c"\C7s!\8Cs~\C8\EE\99;O-\ED0\F4\8E\DA\CE\91_", align 16
@out_p = internal global [64 x i8] c"\8D\F2\A4\94I\22v\AA=%u\9B\B0hi\CB\EA\C0\D8:\FB\8D\0C\F7\CB\B82O\0Dx\82\E5\D0v/\C5\B7!\0E\AF\C2\E9\AD\AC2\ABz\ACIi=\FB\F87$\C2\EC\076\EE1\C8\02\91", align 16
@out_g = internal global [64 x i8] c"bm\02x9\EA\0A\13A1c\A5[L\B5\00)\9DU\22\95l\EF\CB;\FF\10\F3\99\CE,.q\CB\9D\E5\FA$\BA\BFX\E5\B7\95!\92\\\9C\C4.\9FoFK\08\8C\C5r\AFS\E6\D7\88\02", align 16
@.str.76 = private unnamed_addr constant [42 x i8] c"p = BN_bin2bn(out_p, sizeof(out_p), NULL)\00", align 1
@.str.77 = private unnamed_addr constant [42 x i8] c"q = BN_bin2bn(out_q, sizeof(out_q), NULL)\00", align 1
@.str.78 = private unnamed_addr constant [42 x i8] c"g = BN_bin2bn(out_g, sizeof(out_g), NULL)\00", align 1
@.str.79 = private unnamed_addr constant [48 x i8] c"pub = BN_bin2bn(out_pub, sizeof(out_pub), NULL)\00", align 1
@.str.80 = private unnamed_addr constant [51 x i8] c"priv = BN_bin2bn(out_priv, sizeof(out_priv), NULL)\00", align 1
@.str.86 = private unnamed_addr constant [27 x i8] c"DSA_set0_pqg(dsa, p, q, g)\00", align 1
@.str.87 = private unnamed_addr constant [29 x i8] c"DSA_set0_key(dsa, pub, priv)\00", align 1
@.str.92 = private unnamed_addr constant [62 x i8] c"DSA_sign(0, msg, sizeof(msg), signature, &signature_len, dsa)\00", align 1
@test_dsa_sig_neg_param.out_priv = internal global [20 x i8] c"\17\00\B2\8D\CB$\C9\98\D0\7F\1F\83\1A\A1\C4\A4\F8\0F\7F\12", align 16
@test_dsa_sig_neg_param.out_pub = internal global [64 x i8] c"\04r\EE\8D\AAM\89`\0E\B2\D48\84\A2*`_g\D7\9E$\DD\E8P\F2#qUS\94\0Dk.\CD0\DAo\1E,\CFY\BE\05l\07\0E\C68\05\CB\0CD\0A\08\13\B6\0F\14\DEJ\F6\EDN\C3", align 16

; Function Attrs: nounwind uwtable
define internal i32 @test_dsa_sig_neg_param() #0 {
  %1 = alloca i32, align 4
  %2 = alloca i32, align 4
  %3 = alloca ptr, align 8
  %4 = alloca ptr, align 8
  %5 = alloca ptr, align 8
  %6 = alloca ptr, align 8
  %7 = alloca ptr, align 8
  %8 = alloca ptr, align 8
  %9 = alloca [1 x i8], align 1
  %10 = alloca i32, align 4
  %11 = alloca [64 x i8], align 16
  call void @llvm.lifetime.start.p0(i64 4, ptr %1) #4
  store i32 0, ptr %1, align 4, !tbaa !9
  call void @llvm.lifetime.start.p0(i64 4, ptr %2) #4
  store i32 0, ptr %2, align 4, !tbaa !9
  call void @llvm.lifetime.start.p0(i64 8, ptr %3) #4
  store ptr null, ptr %3, align 8, !tbaa !4
  call void @llvm.lifetime.start.p0(i64 8, ptr %4) #4
  store ptr null, ptr %4, align 8, !tbaa !11
  call void @llvm.lifetime.start.p0(i64 8, ptr %5) #4
  store ptr null, ptr %5, align 8, !tbaa !11
  call void @llvm.lifetime.start.p0(i64 8, ptr %6) #4
  store ptr null, ptr %6, align 8, !tbaa !11
  call void @llvm.lifetime.start.p0(i64 8, ptr %7) #4
  store ptr null, ptr %7, align 8, !tbaa !11
  call void @llvm.lifetime.start.p0(i64 8, ptr %8) #4
  store ptr null, ptr %8, align 8, !tbaa !11
  call void @llvm.lifetime.start.p0(i64 1, ptr %9) #4
  call void @llvm.memset.p0.i64(ptr align 1 %9, i8 0, i64 1, i1 false)
  call void @llvm.lifetime.start.p0(i64 4, ptr %10) #4
  call void @llvm.lifetime.start.p0(i64 64, ptr %11) #4
  %12 = call ptr @BN_bin2bn(ptr noundef @out_p, i32 noundef 64, ptr noundef null)
  store ptr %12, ptr %4, align 8, !tbaa !11
  %13 = call i32 @test_ptr(ptr noundef @.str.5, i32 noundef 443, ptr noundef @.str.76, ptr noundef %12)
  %14 = icmp ne i32 %13, 0
  br i1 %14, label %15, label %35

15:                                               ; preds = %0
  %16 = call ptr @BN_bin2bn(ptr noundef @out_q, i32 noundef 20, ptr noundef null)
  store ptr %16, ptr %5, align 8, !tbaa !11
  %17 = call i32 @test_ptr(ptr noundef @.str.5, i32 noundef 444, ptr noundef @.str.77, ptr noundef %16)
  %18 = icmp ne i32 %17, 0
  br i1 %18, label %19, label %35

19:                                               ; preds = %15
  %20 = call ptr @BN_bin2bn(ptr noundef @out_g, i32 noundef 64, ptr noundef null)
  store ptr %20, ptr %6, align 8, !tbaa !11
  %21 = call i32 @test_ptr(ptr noundef @.str.5, i32 noundef 445, ptr noundef @.str.78, ptr noundef %20)
  %22 = icmp ne i32 %21, 0
  br i1 %22, label %23, label %35

23:                                               ; preds = %19
  %24 = call ptr @BN_bin2bn(ptr noundef @test_dsa_sig_neg_param.out_pub, i32 noundef 64, ptr noundef null)
  store ptr %24, ptr %8, align 8, !tbaa !11
  %25 = call i32 @test_ptr(ptr noundef @.str.5, i32 noundef 446, ptr noundef @.str.79, ptr noundef %24)
  %26 = icmp ne i32 %25, 0
  br i1 %26, label %27, label %35

27:                                               ; preds = %23
  %28 = call ptr @BN_bin2bn(ptr noundef @test_dsa_sig_neg_param.out_priv, i32 noundef 20, ptr noundef null)
  store ptr %28, ptr %7, align 8, !tbaa !11
  %29 = call i32 @test_ptr(ptr noundef @.str.5, i32 noundef 447, ptr noundef @.str.80, ptr noundef %28)
  %30 = icmp ne i32 %29, 0
  br i1 %30, label %31, label %35

31:                                               ; preds = %27
  %32 = call ptr @DSA_new()
  store ptr %32, ptr %3, align 8, !tbaa !4
  %33 = call i32 @test_ptr(ptr noundef @.str.5, i32 noundef 448, ptr noundef @.str.7, ptr noundef %32)
  %34 = icmp ne i32 %33, 0
  br i1 %34, label %36, label %35

35:                                               ; preds = %31, %27, %23, %19, %15, %0
  br label %106

36:                                               ; preds = %31
  %37 = load ptr, ptr %3, align 8, !tbaa !4
  %38 = load ptr, ptr %4, align 8, !tbaa !11
  %39 = load ptr, ptr %5, align 8, !tbaa !11
  %40 = load ptr, ptr %6, align 8, !tbaa !11
  %41 = call i32 @DSA_set0_pqg(ptr noundef %37, ptr noundef %38, ptr noundef %39, ptr noundef %40)
  %42 = icmp ne i32 %41, 0
  %43 = zext i1 %42 to i32
  %44 = call i32 @test_true(ptr noundef @.str.5, i32 noundef 451, ptr noundef @.str.86, i32 noundef %43)
  %45 = icmp ne i32 %44, 0
  br i1 %45, label %47, label %46

46:                                               ; preds = %36
  br label %106

47:                                               ; preds = %36
  store i32 1, ptr %2, align 4, !tbaa !9
  %48 = load ptr, ptr %3, align 8, !tbaa !4
  %49 = load ptr, ptr %8, align 8, !tbaa !11
  %50 = load ptr, ptr %7, align 8, !tbaa !11
  %51 = call i32 @DSA_set0_key(ptr noundef %48, ptr noundef %49, ptr noundef %50)
  %52 = icmp ne i32 %51, 0
  %53 = zext i1 %52 to i32
  %54 = call i32 @test_true(ptr noundef @.str.5, i32 noundef 455, ptr noundef @.str.87, i32 noundef %53)
  %55 = icmp ne i32 %54, 0
  br i1 %55, label %57, label %56

56:                                               ; preds = %47
  br label %106

57:                                               ; preds = %47
  store ptr null, ptr %7, align 8, !tbaa !11
  store ptr null, ptr %8, align 8, !tbaa !11
  %58 = load ptr, ptr %4, align 8, !tbaa !11
  call void @BN_set_negative(ptr noundef %58, i32 noundef 1)
  %59 = getelementptr inbounds [1 x i8], ptr %9, i64 0, i64 0
  %60 = getelementptr inbounds [64 x i8], ptr %11, i64 0, i64 0
  %61 = load ptr, ptr %3, align 8, !tbaa !4
  %62 = call i32 @DSA_sign(i32 noundef 0, ptr noundef %59, i32 noundef 1, ptr noundef %60, ptr noundef %10, ptr noundef %61)
  %63 = icmp ne i32 %62, 0
  %64 = zext i1 %63 to i32
  %65 = call i32 @test_false(ptr noundef @.str.5, i32 noundef 460, ptr noundef @.str.92, i32 noundef %64)
  %66 = icmp ne i32 %65, 0
  br i1 %66, label %68, label %67

67:                                               ; preds = %57
  br label %106

68:                                               ; preds = %57
  %69 = load ptr, ptr %4, align 8, !tbaa !11
  call void @BN_set_negative(ptr noundef %69, i32 noundef 0)
  %70 = load ptr, ptr %5, align 8, !tbaa !11
  call void @BN_set_negative(ptr noundef %70, i32 noundef 1)
  %71 = getelementptr inbounds [1 x i8], ptr %9, i64 0, i64 0
  %72 = getelementptr inbounds [64 x i8], ptr %11, i64 0, i64 0
  %73 = load ptr, ptr %3, align 8, !tbaa !4
  %74 = call i32 @DSA_sign(i32 noundef 0, ptr noundef %71, i32 noundef 1, ptr noundef %72, ptr noundef %10, ptr noundef %73)
  %75 = icmp ne i32 %74, 0
  %76 = zext i1 %75 to i32
  %77 = call i32 @test_false(ptr noundef @.str.5, i32 noundef 465, ptr noundef @.str.92, i32 noundef %76)
  %78 = icmp ne i32 %77, 0
  br i1 %78, label %80, label %79

79:                                               ; preds = %68
  br label %106

80:                                               ; preds = %68
  %81 = load ptr, ptr %5, align 8, !tbaa !11
  call void @BN_set_negative(ptr noundef %81, i32 noundef 0)
  %82 = load ptr, ptr %6, align 8, !tbaa !11
  call void @BN_set_negative(ptr noundef %82, i32 noundef 1)
  %83 = getelementptr inbounds [1 x i8], ptr %9, i64 0, i64 0
  %84 = getelementptr inbounds [64 x i8], ptr %11, i64 0, i64 0
  %85 = load ptr, ptr %3, align 8, !tbaa !4
  %86 = call i32 @DSA_sign(i32 noundef 0, ptr noundef %83, i32 noundef 1, ptr noundef %84, ptr noundef %10, ptr noundef %85)
  %87 = icmp ne i32 %86, 0
  %88 = zext i1 %87 to i32
  %89 = call i32 @test_false(ptr noundef @.str.5, i32 noundef 470, ptr noundef @.str.92, i32 noundef %88)
  %90 = icmp ne i32 %89, 0
  br i1 %90, label %92, label %91

91:                                               ; preds = %80
  br label %106

92:                                               ; preds = %80
  %93 = load ptr, ptr %4, align 8, !tbaa !11
  call void @BN_set_negative(ptr noundef %93, i32 noundef 1)
  %94 = load ptr, ptr %5, align 8, !tbaa !11
  call void @BN_set_negative(ptr noundef %94, i32 noundef 1)
  %95 = load ptr, ptr %6, align 8, !tbaa !11
  call void @BN_set_negative(ptr noundef %95, i32 noundef 1)
  %96 = getelementptr inbounds [1 x i8], ptr %9, i64 0, i64 0
  %97 = getelementptr inbounds [64 x i8], ptr %11, i64 0, i64 0
  %98 = load ptr, ptr %3, align 8, !tbaa !4
  %99 = call i32 @DSA_sign(i32 noundef 0, ptr noundef %96, i32 noundef 1, ptr noundef %97, ptr noundef %10, ptr noundef %98)
  %100 = icmp ne i32 %99, 0
  %101 = zext i1 %100 to i32
  %102 = call i32 @test_false(ptr noundef @.str.5, i32 noundef 476, ptr noundef @.str.92, i32 noundef %101)
  %103 = icmp ne i32 %102, 0
  br i1 %103, label %105, label %104

104:                                              ; preds = %92
  br label %106

105:                                              ; preds = %92
  store i32 1, ptr %1, align 4, !tbaa !9
  br label %106

106:                                              ; preds = %105, %104, %91, %79, %67, %56, %46, %35
  %107 = load ptr, ptr %8, align 8, !tbaa !11
  call void @BN_free(ptr noundef %107)
  %108 = load ptr, ptr %7, align 8, !tbaa !11
  call void @BN_free(ptr noundef %108)
  %109 = load i32, ptr %2, align 4, !tbaa !9
  %110 = icmp eq i32 %109, 0
  br i1 %110, label %111, label %115

111:                                              ; preds = %106
  %112 = load ptr, ptr %6, align 8, !tbaa !11
  call void @BN_free(ptr noundef %112)
  %113 = load ptr, ptr %5, align 8, !tbaa !11
  call void @BN_free(ptr noundef %113)
  %114 = load ptr, ptr %4, align 8, !tbaa !11
  call void @BN_free(ptr noundef %114)
  br label %115

115:                                              ; preds = %111, %106
  %116 = load ptr, ptr %3, align 8, !tbaa !4
  call void @DSA_free(ptr noundef %116)
  %117 = load i32, ptr %1, align 4, !tbaa !9
  call void @llvm.lifetime.end.p0(i64 64, ptr %11) #4
  call void @llvm.lifetime.end.p0(i64 4, ptr %10) #4
  call void @llvm.lifetime.end.p0(i64 1, ptr %9) #4
  call void @llvm.lifetime.end.p0(i64 8, ptr %8) #4
  call void @llvm.lifetime.end.p0(i64 8, ptr %7) #4
  call void @llvm.lifetime.end.p0(i64 8, ptr %6) #4
  call void @llvm.lifetime.end.p0(i64 8, ptr %5) #4
  call void @llvm.lifetime.end.p0(i64 8, ptr %4) #4
  call void @llvm.lifetime.end.p0(i64 8, ptr %3) #4
  call void @llvm.lifetime.end.p0(i64 4, ptr %2) #4
  call void @llvm.lifetime.end.p0(i64 4, ptr %1) #4
  ret i32 %117
}