; Function Attrs: nounwind uwtable
define internal range(i32 0, 2) i32 @test_dsa_sig_neg_param() #0 {
  %1 = alloca [1 x i8], align 1
  %2 = alloca i32, align 4
  %3 = alloca [64 x i8], align 16
  call void @llvm.lifetime.start.p0(i64 1, ptr nonnull %1) #3
  store i8 0, ptr %1, align 1
  call void @llvm.lifetime.start.p0(i64 4, ptr nonnull %2) #3
  call void @llvm.lifetime.start.p0(i64 64, ptr nonnull %3) #3
  %4 = tail call ptr @BN_bin2bn(ptr noundef nonnull @out_p, i32 noundef 64, ptr noundef null) #3
  %5 = tail call i32 @test_ptr(ptr noundef nonnull @.str.5, i32 noundef 443, ptr noundef nonnull @.str.76, ptr noundef %4) #3
  %.not = icmp eq i32 %5, 0
  br i1 %.not, label %51, label %6

6:                                                ; preds = %0
  %7 = tail call ptr @BN_bin2bn(ptr noundef nonnull @out_q, i32 noundef 20, ptr noundef null) #3
  %8 = tail call i32 @test_ptr(ptr noundef nonnull @.str.5, i32 noundef 444, ptr noundef nonnull @.str.77, ptr noundef %7) #3
  %.not32 = icmp eq i32 %8, 0
  br i1 %.not32, label %51, label %9

9:                                                ; preds = %6
  %10 = tail call ptr @BN_bin2bn(ptr noundef nonnull @out_g, i32 noundef 64, ptr noundef null) #3
  %11 = tail call i32 @test_ptr(ptr noundef nonnull @.str.5, i32 noundef 445, ptr noundef nonnull @.str.78, ptr noundef %10) #3
  %.not33 = icmp eq i32 %11, 0
  br i1 %.not33, label %51, label %12

12:                                               ; preds = %9
  %13 = tail call ptr @BN_bin2bn(ptr noundef nonnull @test_dsa_sig_neg_param.out_pub, i32 noundef 64, ptr noundef null) #3
  %14 = tail call i32 @test_ptr(ptr noundef nonnull @.str.5, i32 noundef 446, ptr noundef nonnull @.str.79, ptr noundef %13) #3
  %.not34 = icmp eq i32 %14, 0
  br i1 %.not34, label %51, label %15

15:                                               ; preds = %12
  %16 = tail call ptr @BN_bin2bn(ptr noundef nonnull @test_dsa_sig_neg_param.out_priv, i32 noundef 20, ptr noundef null) #3
  %17 = tail call i32 @test_ptr(ptr noundef nonnull @.str.5, i32 noundef 447, ptr noundef nonnull @.str.80, ptr noundef %16) #3
  %.not35 = icmp eq i32 %17, 0
  br i1 %.not35, label %51, label %18

18:                                               ; preds = %15
  %19 = tail call ptr @DSA_new() #3
  %20 = tail call i32 @test_ptr(ptr noundef nonnull @.str.5, i32 noundef 448, ptr noundef nonnull @.str.7, ptr noundef %19) #3
  %.not36 = icmp eq i32 %20, 0
  br i1 %.not36, label %51, label %21

21:                                               ; preds = %18
  %22 = tail call i32 @DSA_set0_pqg(ptr noundef %19, ptr noundef %4, ptr noundef %7, ptr noundef %10) #3
  %23 = icmp ne i32 %22, 0
  %24 = zext i1 %23 to i32
  %25 = tail call i32 @test_true(ptr noundef nonnull @.str.5, i32 noundef 451, ptr noundef nonnull @.str.86, i32 noundef %24) #3
  %.not37 = icmp eq i32 %25, 0
  br i1 %.not37, label %51, label %26

26:                                               ; preds = %21
  %27 = tail call i32 @DSA_set0_key(ptr noundef %19, ptr noundef %13, ptr noundef %16) #3
  %28 = icmp ne i32 %27, 0
  %29 = zext i1 %28 to i32
  %30 = tail call i32 @test_true(ptr noundef nonnull @.str.5, i32 noundef 455, ptr noundef nonnull @.str.87, i32 noundef %29) #3
  %.not38 = icmp eq i32 %30, 0
  br i1 %.not38, label %51, label %31

31:                                               ; preds = %26
  tail call void @BN_set_negative(ptr noundef %4, i32 noundef 1) #3
  %32 = call i32 @DSA_sign(i32 noundef 0, ptr noundef nonnull %1, i32 noundef 1, ptr noundef nonnull %3, ptr noundef nonnull %2, ptr noundef %19) #3
  %33 = icmp ne i32 %32, 0
  %34 = zext i1 %33 to i32
  %35 = call i32 @test_false(ptr noundef nonnull @.str.5, i32 noundef 460, ptr noundef nonnull @.str.92, i32 noundef %34) #3
  %.not39 = icmp eq i32 %35, 0
  br i1 %.not39, label %51, label %36

36:                                               ; preds = %31
  call void @BN_set_negative(ptr noundef %4, i32 noundef 0) #3
  call void @BN_set_negative(ptr noundef %7, i32 noundef 1) #3
  %37 = call i32 @DSA_sign(i32 noundef 0, ptr noundef nonnull %1, i32 noundef 1, ptr noundef nonnull %3, ptr noundef nonnull %2, ptr noundef %19) #3
  %38 = icmp ne i32 %37, 0
  %39 = zext i1 %38 to i32
  %40 = call i32 @test_false(ptr noundef nonnull @.str.5, i32 noundef 465, ptr noundef nonnull @.str.92, i32 noundef %39) #3
  %.not40 = icmp eq i32 %40, 0
  br i1 %.not40, label %51, label %41

41:                                               ; preds = %36
  call void @BN_set_negative(ptr noundef %7, i32 noundef 0) #3
  call void @BN_set_negative(ptr noundef %10, i32 noundef 1) #3
  %42 = call i32 @DSA_sign(i32 noundef 0, ptr noundef nonnull %1, i32 noundef 1, ptr noundef nonnull %3, ptr noundef nonnull %2, ptr noundef %19) #3
  %43 = icmp ne i32 %42, 0
  %44 = zext i1 %43 to i32
  %45 = call i32 @test_false(ptr noundef nonnull @.str.5, i32 noundef 470, ptr noundef nonnull @.str.92, i32 noundef %44) #3
  %.not41 = icmp eq i32 %45, 0
  br i1 %.not41, label %51, label %46

46:                                               ; preds = %41
  call void @BN_set_negative(ptr noundef %4, i32 noundef 1) #3
  call void @BN_set_negative(ptr noundef %7, i32 noundef 1) #3
  call void @BN_set_negative(ptr noundef %10, i32 noundef 1) #3
  %47 = call i32 @DSA_sign(i32 noundef 0, ptr noundef nonnull %1, i32 noundef 1, ptr noundef nonnull %3, ptr noundef nonnull %2, ptr noundef %19) #3
  %48 = icmp ne i32 %47, 0
  %49 = zext i1 %48 to i32
  %50 = call i32 @test_false(ptr noundef nonnull @.str.5, i32 noundef 476, ptr noundef nonnull @.str.92, i32 noundef %49) #3
  %.not42 = icmp ne i32 %50, 0
  %spec.select = zext i1 %.not42 to i32
  br label %51

51:                                               ; preds = %46, %41, %36, %31, %26, %21, %0, %6, %9, %12, %15, %18
  %.031 = phi i32 [ 0, %41 ], [ 0, %36 ], [ 0, %31 ], [ 0, %26 ], [ 0, %21 ], [ 0, %18 ], [ 0, %15 ], [ 0, %12 ], [ 0, %9 ], [ 0, %6 ], [ 0, %0 ], [ %spec.select, %46 ]
  %52 = phi i1 [ false, %41 ], [ false, %36 ], [ false, %31 ], [ false, %26 ], [ true, %21 ], [ true, %18 ], [ true, %15 ], [ true, %12 ], [ true, %9 ], [ true, %6 ], [ true, %0 ], [ false, %46 ]
  %.029 = phi ptr [ %19, %41 ], [ %19, %36 ], [ %19, %31 ], [ %19, %26 ], [ %19, %21 ], [ %19, %18 ], [ null, %15 ], [ null, %12 ], [ null, %9 ], [ null, %6 ], [ null, %0 ], [ %19, %46 ]
  %.028 = phi ptr [ %7, %41 ], [ %7, %36 ], [ %7, %31 ], [ %7, %26 ], [ %7, %21 ], [ %7, %18 ], [ %7, %15 ], [ %7, %12 ], [ %7, %9 ], [ %7, %6 ], [ null, %0 ], [ %7, %46 ]
  %.027 = phi ptr [ %10, %41 ], [ %10, %36 ], [ %10, %31 ], [ %10, %26 ], [ %10, %21 ], [ %10, %18 ], [ %10, %15 ], [ %10, %12 ], [ %10, %9 ], [ null, %6 ], [ null, %0 ], [ %10, %46 ]
  %.026 = phi ptr [ null, %41 ], [ null, %36 ], [ null, %31 ], [ %16, %26 ], [ %16, %21 ], [ %16, %18 ], [ %16, %15 ], [ null, %12 ], [ null, %9 ], [ null, %6 ], [ null, %0 ], [ null, %46 ]
  %.0 = phi ptr [ null, %41 ], [ null, %36 ], [ null, %31 ], [ %13, %26 ], [ %13, %21 ], [ %13, %18 ], [ %13, %15 ], [ %13, %12 ], [ null, %9 ], [ null, %6 ], [ null, %0 ], [ null, %46 ]
  call void @BN_free(ptr noundef %.0) #3
  call void @BN_free(ptr noundef %.026) #3
  br i1 %52, label %53, label %54

53:                                               ; preds = %51
  call void @BN_free(ptr noundef %.027) #3
  call void @BN_free(ptr noundef %.028) #3
  call void @BN_free(ptr noundef %4) #3
  br label %54

54:                                               ; preds = %53, %51
  call void @DSA_free(ptr noundef %.029) #3
  call void @llvm.lifetime.end.p0(i64 64, ptr nonnull %3) #3
  call void @llvm.lifetime.end.p0(i64 4, ptr nonnull %2) #3
  call void @llvm.lifetime.end.p0(i64 1, ptr nonnull %1) #3
  ret i32 %.031
}